; Function Attrs: nounwind uwtable
define internal void @bsf_list_flush(ptr noundef readonly captures(none) %0) #0 {
  %2 = getelementptr inbounds nuw i8, ptr %0, i64 16
  %3 = load ptr, ptr %2, align 8, !tbaa !9
  %4 = getelementptr inbounds nuw i8, ptr %3, i64 16
  %5 = load i32, ptr %4, align 8, !tbaa !64
  %6 = icmp sgt i32 %5, 0
  br i1 %6, label %.lr.ph, label %._crit_edge

.lr.ph:                                           ; preds = %1
  %7 = getelementptr inbounds nuw i8, ptr %3, i64 8
  br label %9

._crit_edge:                                      ; preds = %av_bsf_flush.exit, %1
  %8 = getelementptr inbounds nuw i8, ptr %3, i64 20
  store i32 0, ptr %8, align 4, !tbaa !73
  ret void

9:                                                ; preds = %.lr.ph, %av_bsf_flush.exit
  %indvars.iv = phi i64 [ 0, %.lr.ph ], [ %indvars.iv.next, %av_bsf_flush.exit ]
  %10 = load ptr, ptr %7, align 8, !tbaa !62
  %11 = getelementptr inbounds nuw ptr, ptr %10, i64 %indvars.iv
  %12 = load ptr, ptr %11, align 8, !tbaa !4
  %13 = getelementptr inbounds nuw i8, ptr %12, i64 64
  store i32 0, ptr %13, align 8, !tbaa !47
  %14 = getelementptr inbounds nuw i8, ptr %12, i64 56
  %15 = load ptr, ptr %14, align 8, !tbaa !27
  tail call void @av_packet_unref(ptr noundef %15) #6
  %16 = getelementptr inbounds nuw i8, ptr %12, i64 8
  %17 = load ptr, ptr %16, align 8, !tbaa !16
  %18 = getelementptr inbounds nuw i8, ptr %17, i64 56
  %19 = load ptr, ptr %18, align 8, !tbaa !48
  %.not.i = icmp eq ptr %19, null
  br i1 %.not.i, label %av_bsf_flush.exit, label %20

20:                                               ; preds = %9
  tail call void %19(ptr noundef nonnull %12) #6
  br label %av_bsf_flush.exit

av_bsf_flush.exit:                                ; preds = %9, %20
  %indvars.iv.next = add nuw nsw i64 %indvars.iv, 1
  %21 = load i32, ptr %4, align 8, !tbaa !64
  %22 = sext i32 %21 to i64
  %23 = icmp slt i64 %indvars.iv.next, %22
  br i1 %23, label %9, label %._crit_edge, !llvm.loop !75
}